; Function Attrs: nounwind uwtable
define ptr @l_MonadExcept_orelse_x27___rarg(ptr noundef %0, ptr readnone captures(none) %1, ptr noundef %2, ptr noundef %3, i8 noundef zeroext %4) local_unnamed_addr #0 {
  %6 = getelementptr inbounds nuw i8, ptr %0, i64 16
  %7 = load ptr, ptr %6, align 8, !tbaa !9
  %8 = ptrtoint ptr %7 to i64
  %9 = and i64 %8, 1
  %.not = icmp eq i64 %9, 0
  br i1 %.not, label %10, label %lean_inc.exit

10:                                               ; preds = %5
  %.val.i = load i32, ptr %7, align 4, !tbaa !4
  %11 = icmp sgt i32 %.val.i, 0
  br i1 %11, label %12, label %14, !prof !13

12:                                               ; preds = %10
  %13 = add nuw i32 %.val.i, 1
  store i32 %13, ptr %7, align 4, !tbaa !4
  br label %16

14:                                               ; preds = %10
  %.not.i = icmp eq i32 %.val.i, 0
  br i1 %.not.i, label %lean_inc.exit, label %15

15:                                               ; preds = %14
  tail call void @lean_inc_ref_cold(ptr noundef nonnull %7) #5
  %.val.i16.pr = load i32, ptr %7, align 4, !tbaa !4
  br label %16

16:                                               ; preds = %15, %12
  %.val.i16 = phi i32 [ %.val.i16.pr, %15 ], [ %13, %12 ]
  %17 = icmp sgt i32 %.val.i16, 0
  br i1 %17, label %18, label %20, !prof !14

18:                                               ; preds = %16
  %19 = add nuw i32 %.val.i16, 1
  store i32 %19, ptr %7, align 4, !tbaa !4
  br label %lean_inc.exit

20:                                               ; preds = %16
  %.not.i17 = icmp eq i32 %.val.i16, 0
  br i1 %.not.i17, label %lean_inc.exit, label %21

21:                                               ; preds = %20
  tail call void @lean_inc_ref_cold(ptr noundef nonnull %7) #5
  br label %lean_inc.exit

lean_inc.exit:                                    ; preds = %5, %14, %21, %20, %18
  tail call void @lean_inc_heartbeat() #5
  %22 = tail call noalias ptr @mi_malloc_small(i64 noundef 56) #5
  %23 = icmp eq ptr %22, null
  br i1 %23, label %24, label %lean_alloc_closure.exit

24:                                               ; preds = %lean_inc.exit
  tail call void @lean_internal_panic_out_of_memory() #6
  unreachable

lean_alloc_closure.exit:                          ; preds = %lean_inc.exit
  %.in.in.in = zext i8 %4 to i64
  %.in.in = shl nuw nsw i64 %.in.in.in, 1
  %.in = or disjoint i64 %.in.in, 1
  %25 = inttoptr i64 %.in to ptr
  %26 = getelementptr inbounds nuw i8, ptr %22, i64 4
  store i32 1, ptr %22, align 4, !tbaa !4
  store i32 -184549320, ptr %26, align 4
  %27 = getelementptr inbounds nuw i8, ptr %22, i64 8
  store ptr @l_MonadExcept_orelse_x27___rarg___lambda__2___boxed, ptr %27, align 8, !tbaa !9
  %28 = getelementptr inbounds nuw i8, ptr %22, i64 16
  store i16 5, ptr %28, align 8, !tbaa !11
  %29 = getelementptr inbounds nuw i8, ptr %22, i64 18
  store i16 4, ptr %29, align 2, !tbaa !11
  %30 = getelementptr inbounds nuw i8, ptr %22, i64 24
  store ptr %0, ptr %30, align 8, !tbaa !9
  %31 = getelementptr inbounds nuw i8, ptr %22, i64 32
  store ptr %25, ptr %31, align 8, !tbaa !9
  %32 = getelementptr inbounds nuw i8, ptr %22, i64 40
  store ptr %7, ptr %32, align 8, !tbaa !9
  %33 = getelementptr inbounds nuw i8, ptr %22, i64 48
  store ptr %3, ptr %33, align 8, !tbaa !9
  %34 = tail call ptr @lean_apply_3(ptr noundef %7, ptr noundef nonnull inttoptr (i64 1 to ptr), ptr noundef %2, ptr noundef nonnull %22) #5
  ret ptr %34
}